; Function Attrs: nofree norecurse nosync nounwind memory(readwrite, inaccessiblemem: none) uwtable
define internal void @hrslice8_transition(ptr noundef readonly captures(none) %0, ptr noundef readonly captures(none) %1, ptr noundef readonly captures(none) %2, ptr noundef readonly captures(none) %3, float noundef %4, i32 noundef %5, i32 noundef %6, i32 %7) #6 {
  %9 = getelementptr inbounds nuw i8, ptr %0, i64 72
  %10 = load ptr, ptr %9, align 8, !tbaa !4
  %11 = getelementptr inbounds nuw i8, ptr %10, i64 40
  %12 = load i32, ptr %11, align 8, !tbaa !77
  %13 = getelementptr inbounds nuw i8, ptr %3, i64 104
  %14 = load i32, ptr %13, align 8, !tbaa !85
  %15 = sitofp i32 %14 to float
  %16 = icmp slt i32 %5, %6
  br i1 %16, label %.preheader.lr.ph, label %._crit_edge

.preheader.lr.ph:                                 ; preds = %8
  %17 = icmp sgt i32 %14, 0
  %18 = fadd nsz float %15, -1.000000e+00
  %19 = fneg nsz float %4
  %20 = getelementptr inbounds nuw i8, ptr %1, i64 64
  %21 = getelementptr inbounds nuw i8, ptr %2, i64 64
  %22 = getelementptr inbounds nuw i8, ptr %3, i64 64
  %23 = icmp sgt i32 %12, 0
  %or.cond = select i1 %17, i1 %23, i1 false
  br i1 %or.cond, label %.preheader.us.us.preheader, label %._crit_edge

.preheader.us.us.preheader:                       ; preds = %.preheader.lr.ph
  %wide.trip.count59 = zext nneg i32 %14 to i64
  %wide.trip.count = zext nneg i32 %12 to i64
  br label %.preheader.us.us

.preheader.us.us:                                 ; preds = %.preheader.us.us.preheader, %._crit_edge47.split.us.us.us
  %.048.us.us = phi i32 [ %75, %._crit_edge47.split.us.us.us ], [ %5, %.preheader.us.us.preheader ]
  br label %.lr.ph.us.us.us

.lr.ph.us.us.us:                                  ; preds = %._crit_edge.us.us.us, %.preheader.us.us
  %indvars.iv56 = phi i64 [ %indvars.iv.next57, %._crit_edge.us.us.us ], [ 0, %.preheader.us.us ]
  %24 = trunc nuw nsw i64 %indvars.iv56 to i32
  %25 = uitofp nneg i32 %24 to float
  %26 = fsub nsz float %18, %25
  %27 = fdiv nsz float %26, %15
  %28 = tail call nsz float @llvm.fmuladd.f32(float %19, float 1.500000e+00, float %27)
  %29 = fadd nsz float %28, 5.000000e-01
  %30 = fmul nsz float %29, 2.000000e+00
  %31 = fcmp nsz ogt float %30, 0.000000e+00
  %32 = select nsz i1 %31, float %30, float 0.000000e+00
  %33 = fcmp nsz ogt float %32, 1.000000e+00
  %..i.i.us.us.us = select nsz i1 %33, float 1.000000e+00, float %32
  %34 = fmul nsz float %..i.i.us.us.us, %..i.i.us.us.us
  %35 = tail call nsz float @llvm.fmuladd.f32(float %..i.i.us.us.us, float -2.000000e+00, float 3.000000e+00)
  %36 = fmul nsz float %34, %35
  %37 = fmul nsz float %27, 1.000000e+01
  %38 = tail call nsz float @llvm.floor.f32(float %37)
  %39 = fsub nsz float %37, %38
  %40 = fcmp nsz ole float %36, %39
  %41 = select nsz i1 %40, float 0.000000e+00, float 1.000000e+00
  %42 = fsub nsz float 1.000000e+00, %41
  br label %43

43:                                               ; preds = %43, %.lr.ph.us.us.us
  %indvars.iv = phi i64 [ %indvars.iv.next, %43 ], [ 0, %.lr.ph.us.us.us ]
  %44 = getelementptr inbounds nuw [8 x ptr], ptr %1, i64 0, i64 %indvars.iv
  %45 = load ptr, ptr %44, align 8, !tbaa !89
  %46 = getelementptr inbounds nuw [8 x i32], ptr %20, i64 0, i64 %indvars.iv
  %47 = load i32, ptr %46, align 4, !tbaa !31
  %48 = mul nsw i32 %47, %.048.us.us
  %49 = sext i32 %48 to i64
  %50 = getelementptr inbounds i8, ptr %45, i64 %49
  %51 = getelementptr inbounds nuw [8 x ptr], ptr %2, i64 0, i64 %indvars.iv
  %52 = load ptr, ptr %51, align 8, !tbaa !89
  %53 = getelementptr inbounds nuw [8 x i32], ptr %21, i64 0, i64 %indvars.iv
  %54 = load i32, ptr %53, align 4, !tbaa !31
  %55 = mul nsw i32 %54, %.048.us.us
  %56 = sext i32 %55 to i64
  %57 = getelementptr inbounds i8, ptr %52, i64 %56
  %58 = getelementptr inbounds nuw [8 x ptr], ptr %3, i64 0, i64 %indvars.iv
  %59 = load ptr, ptr %58, align 8, !tbaa !89
  %60 = getelementptr inbounds nuw [8 x i32], ptr %22, i64 0, i64 %indvars.iv
  %61 = load i32, ptr %60, align 4, !tbaa !31
  %62 = mul nsw i32 %61, %.048.us.us
  %63 = sext i32 %62 to i64
  %64 = getelementptr inbounds i8, ptr %59, i64 %63
  %65 = getelementptr inbounds nuw i8, ptr %57, i64 %indvars.iv56
  %66 = load i8, ptr %65, align 1, !tbaa !90
  %67 = uitofp i8 %66 to float
  %68 = getelementptr inbounds nuw i8, ptr %50, i64 %indvars.iv56
  %69 = load i8, ptr %68, align 1, !tbaa !90
  %70 = uitofp i8 %69 to float
  %71 = fmul nsz float %42, %70
  %72 = tail call nsz noundef float @llvm.fmuladd.f32(float %67, float %41, float %71)
  %73 = fptoui float %72 to i8
  %74 = getelementptr inbounds nuw i8, ptr %64, i64 %indvars.iv56
  store i8 %73, ptr %74, align 1, !tbaa !90
  %indvars.iv.next = add nuw nsw i64 %indvars.iv, 1
  %exitcond.not = icmp eq i64 %indvars.iv.next, %wide.trip.count
  br i1 %exitcond.not, label %._crit_edge.us.us.us, label %43, !llvm.loop !292

._crit_edge.us.us.us:                             ; preds = %43
  %indvars.iv.next57 = add nuw nsw i64 %indvars.iv56, 1
  %exitcond60.not = icmp eq i64 %indvars.iv.next57, %wide.trip.count59
  br i1 %exitcond60.not, label %._crit_edge47.split.us.us.us, label %.lr.ph.us.us.us, !llvm.loop !293

._crit_edge47.split.us.us.us:                     ; preds = %._crit_edge.us.us.us
  %75 = add nsw i32 %.048.us.us, 1
  %exitcond61.not = icmp eq i32 %75, %6
  br i1 %exitcond61.not, label %._crit_edge, label %.preheader.us.us, !llvm.loop !294

._crit_edge:                                      ; preds = %._crit_edge47.split.us.us.us, %.preheader.lr.ph, %8
  ret void
}